; Function Attrs: mustprogress uwtable
define void @_ZN3fmt3v1113buffered_fileC2ENS0_18basic_cstring_viewIcEES3_(ptr noundef nonnull writeonly align 8 captures(none) dereferenceable(8) initializes((0, 8)) %0, ptr %1, ptr readonly captures(none) %2) unnamed_addr #6 align 2 personality ptr @__gxx_personality_v0 {
  %4 = alloca %"struct.fmt::v11::detail::format_arg_store", align 16
  br label %5

5:                                                ; preds = %8, %3
  %6 = tail call noalias ptr @fopen(ptr noundef %1, ptr noundef %2)
  store ptr %6, ptr %0, align 8, !tbaa !3
  %7 = icmp eq ptr %6, null
  br i1 %7, label %8, label %.critedge

8:                                                ; preds = %5
  %9 = tail call ptr @__errno_location() #16
  %10 = load i32, ptr %9, align 4, !tbaa !9
  %11 = icmp eq i32 %10, 4
  br i1 %11, label %5, label %12, !llvm.loop !11

12:                                               ; preds = %8
  %13 = tail call ptr @__cxa_allocate_exception(i64 32) #17
  %14 = load i32, ptr %9, align 4, !tbaa !9
  call void @llvm.lifetime.start.p0(i64 16, ptr nonnull %4) #17, !noalias !13
  %15 = ptrtoint ptr %1 to i64
  store i64 %15, ptr %4, align 16, !noalias !13
  invoke void @_ZN3fmt3v1113vsystem_errorEiNS0_17basic_string_viewIcEENS0_17basic_format_argsINS0_7contextEEE(ptr dead_on_unwind writable sret(%"class.std::system_error") align 8 %13, i32 noundef %14, ptr nonnull @.str.2, i64 19, i64 12, ptr nonnull %4)
          to label %17 unwind label %.thread17

.thread17:                                        ; preds = %12
  %16 = landingpad { ptr, i32 }
          cleanup
  call void @__cxa_free_exception(ptr %13) #17
  resume { ptr, i32 } %16

17:                                               ; preds = %12
  call void @llvm.lifetime.end.p0(i64 16, ptr nonnull %4) #17, !noalias !13
  call void @__cxa_throw(ptr %13, ptr nonnull @_ZTISt12system_error, ptr nonnull @_ZNSt12system_errorD1Ev) #19
  unreachable

.critedge:                                        ; preds = %5
  ret void
}